; Function Attrs: nounwind uwtable
define internal fastcc ptr @call_typing_args_kwargs(ptr noundef %0, ptr noundef %1, ptr noundef readonly captures(none) %2, ptr noundef %3) unnamed_addr #0 {
  %5 = tail call ptr @PyImport_ImportModule(ptr noundef nonnull @.str.98) #8
  %6 = icmp eq ptr %5, null
  br i1 %6, label %Py_DECREF.exit, label %7

7:                                                ; preds = %4
  %8 = tail call ptr @PyObject_GetAttrString(ptr noundef nonnull %5, ptr noundef %0) #8
  %9 = icmp eq ptr %8, null
  br i1 %9, label %47, label %10

10:                                               ; preds = %7
  %11 = getelementptr i8, ptr %2, i64 16
  %.val = load i64, ptr %11, align 8, !tbaa !4
  %12 = add i64 %.val, 1
  %13 = tail call ptr @PyTuple_New(i64 noundef %12) #8
  %14 = icmp eq ptr %13, null
  br i1 %14, label %47, label %15

15:                                               ; preds = %10
  %16 = load i32, ptr %1, align 8, !tbaa !27
  %17 = icmp slt i32 %16, 0
  br i1 %17, label %_Py_NewRef.exit, label %18

18:                                               ; preds = %15
  %19 = add nuw i32 %16, 1
  store i32 %19, ptr %1, align 8, !tbaa !27
  br label %_Py_NewRef.exit

_Py_NewRef.exit:                                  ; preds = %15, %18
  %20 = getelementptr inbounds nuw i8, ptr %13, i64 24
  store ptr %1, ptr %20, align 8, !tbaa !16
  %21 = icmp sgt i64 %.val, 0
  br i1 %21, label %.lr.ph, label %._crit_edge

.lr.ph:                                           ; preds = %_Py_NewRef.exit
  %22 = getelementptr inbounds nuw i8, ptr %2, i64 24
  br label %38

._crit_edge:                                      ; preds = %_Py_NewRef.exit40, %_Py_NewRef.exit
  %23 = tail call ptr @PyObject_Call(ptr noundef nonnull %8, ptr noundef nonnull %13, ptr noundef %3) #8
  %24 = load i32, ptr %5, align 8, !tbaa !27
  %.not.i36 = icmp sgt i32 %24, -1
  br i1 %.not.i36, label %25, label %Py_DECREF.exit37

25:                                               ; preds = %._crit_edge
  %26 = add nsw i32 %24, -1
  store i32 %26, ptr %5, align 8, !tbaa !27
  %27 = icmp eq i32 %26, 0
  br i1 %27, label %28, label %Py_DECREF.exit37

28:                                               ; preds = %25
  tail call void @_Py_Dealloc(ptr noundef nonnull %5) #8
  br label %Py_DECREF.exit37

Py_DECREF.exit37:                                 ; preds = %._crit_edge, %25, %28
  %29 = load i32, ptr %8, align 8, !tbaa !27
  %.not.i34 = icmp sgt i32 %29, -1
  br i1 %.not.i34, label %30, label %Py_DECREF.exit35

30:                                               ; preds = %Py_DECREF.exit37
  %31 = add nsw i32 %29, -1
  store i32 %31, ptr %8, align 8, !tbaa !27
  %32 = icmp eq i32 %31, 0
  br i1 %32, label %33, label %Py_DECREF.exit35

33:                                               ; preds = %30
  tail call void @_Py_Dealloc(ptr noundef nonnull %8) #8
  br label %Py_DECREF.exit35

Py_DECREF.exit35:                                 ; preds = %Py_DECREF.exit37, %30, %33
  %34 = load i32, ptr %13, align 8, !tbaa !27
  %.not.i = icmp sgt i32 %34, -1
  br i1 %.not.i, label %35, label %Py_DECREF.exit

35:                                               ; preds = %Py_DECREF.exit35
  %36 = add nsw i32 %34, -1
  store i32 %36, ptr %13, align 8, !tbaa !27
  %37 = icmp eq i32 %36, 0
  br i1 %37, label %Py_DECREF.exit.sink.split, label %Py_DECREF.exit

38:                                               ; preds = %.lr.ph, %_Py_NewRef.exit40
  %.02750 = phi i64 [ 0, %.lr.ph ], [ %41, %_Py_NewRef.exit40 ]
  %39 = getelementptr [1 x ptr], ptr %22, i64 0, i64 %.02750
  %40 = load ptr, ptr %39, align 8, !tbaa !16
  %41 = add nuw nsw i64 %.02750, 1
  %42 = load i32, ptr %40, align 8, !tbaa !27
  %43 = icmp slt i32 %42, 0
  br i1 %43, label %_Py_NewRef.exit40, label %44

44:                                               ; preds = %38
  %45 = add nuw i32 %42, 1
  store i32 %45, ptr %40, align 8, !tbaa !27
  br label %_Py_NewRef.exit40

_Py_NewRef.exit40:                                ; preds = %38, %44
  %46 = getelementptr [1 x ptr], ptr %20, i64 0, i64 %41
  store ptr %40, ptr %46, align 8, !tbaa !16
  %exitcond.not = icmp eq i64 %41, %.val
  br i1 %exitcond.not, label %._crit_edge, label %38, !llvm.loop !159

47:                                               ; preds = %10, %7
  %48 = load i32, ptr %5, align 8, !tbaa !27
  %.not.i.i = icmp sgt i32 %48, -1
  br i1 %.not.i.i, label %49, label %Py_XDECREF.exit

49:                                               ; preds = %47
  %50 = add nsw i32 %48, -1
  store i32 %50, ptr %5, align 8, !tbaa !27
  %51 = icmp eq i32 %50, 0
  br i1 %51, label %52, label %Py_XDECREF.exit

52:                                               ; preds = %49
  tail call void @_Py_Dealloc(ptr noundef nonnull %5) #8
  br label %Py_XDECREF.exit

Py_XDECREF.exit:                                  ; preds = %47, %49, %52
  br i1 %9, label %Py_DECREF.exit, label %53

53:                                               ; preds = %Py_XDECREF.exit
  %54 = load i32, ptr %8, align 8, !tbaa !27
  %.not.i.i43 = icmp sgt i32 %54, -1
  br i1 %.not.i.i43, label %55, label %Py_DECREF.exit

55:                                               ; preds = %53
  %56 = add nsw i32 %54, -1
  store i32 %56, ptr %8, align 8, !tbaa !27
  %57 = icmp eq i32 %56, 0
  br i1 %57, label %Py_DECREF.exit.sink.split, label %Py_DECREF.exit

Py_DECREF.exit.sink.split:                        ; preds = %55, %35
  %.sink = phi ptr [ %13, %35 ], [ %8, %55 ]
  %.0.ph = phi ptr [ %23, %35 ], [ null, %55 ]
  tail call void @_Py_Dealloc(ptr noundef nonnull %.sink) #8
  br label %Py_DECREF.exit

Py_DECREF.exit:                                   ; preds = %Py_DECREF.exit.sink.split, %4, %55, %53, %Py_XDECREF.exit, %35, %Py_DECREF.exit35
  %.0 = phi ptr [ %23, %Py_DECREF.exit35 ], [ %23, %35 ], [ null, %Py_XDECREF.exit ], [ null, %53 ], [ null, %55 ], [ null, %4 ], [ %.0.ph, %Py_DECREF.exit.sink.split ]
  ret ptr %.0
}